; Function Attrs: nounwind uwtable
define hidden void @je_background_thread_wakeup_early(ptr noundef %0, ptr noundef %1) local_unnamed_addr #0 {
  %.not = icmp eq ptr %1, null
  br i1 %.not, label %6, label %3

3:                                                ; preds = %2
  %4 = tail call i64 @je_nstime_ns(ptr noundef nonnull %1) #12
  %5 = icmp ult i64 %4, 100000000
  br i1 %5, label %9, label %6

6:                                                ; preds = %3, %2
  %7 = getelementptr inbounds nuw i8, ptr %0, i64 8
  %8 = tail call i32 @pthread_cond_signal(ptr noundef nonnull %7) #12
  br label %9

9:                                                ; preds = %3, %6
  ret void
}